; ModuleID = '36/1008.c'
source_filename = "36/1008.c"
target datalayout = "e-m:e-p270:32:32-p271:32:32-p272:64:64-i64:64-f80:128-n8:16:32:64-S128"
target triple = "x86_64-pc-linux-gnu"

@.str = private unnamed_addr constant [5 x i8] c"%s%s\00", align 1
@.str.1 = private unnamed_addr constant [4 x i8] c"NO\0A\00", align 1
@.str.2 = private unnamed_addr constant [5 x i8] c"YES\0A\00", align 1

; Function Attrs: noinline nounwind uwtable
define dso_local i32 @main() #0 {
  %1 = alloca i32, align 4
  %2 = alloca [100 x i8], align 16
  %3 = alloca [100 x i8], align 16
  %4 = alloca i8, align 1
  %5 = alloca i32, align 4
  %6 = alloca i32, align 4
  %7 = alloca i32, align 4
  %8 = alloca i32, align 4
  store i32 0, i32* %1, align 4
  %9 = getelementptr inbounds [100 x i8], [100 x i8]* %2, i64 0, i64 0
  %10 = getelementptr inbounds [100 x i8], [100 x i8]* %3, i64 0, i64 0
  %11 = call i32 (i8*, ...) @__isoc99_scanf(i8* getelementptr inbounds ([5 x i8], [5 x i8]* @.str, i64 0, i64 0), i8* %9, i8* %10)
  %12 = getelementptr inbounds [100 x i8], [100 x i8]* %2, i64 0, i64 0
  %13 = call i64 @strlen(i8* %12) #3
  %14 = trunc i64 %13 to i32
  store i32 %14, i32* %7, align 4
  %15 = getelementptr inbounds [100 x i8], [100 x i8]* %3, i64 0, i64 0
  %16 = call i64 @strlen(i8* %15) #3
  %17 = trunc i64 %16 to i32
  store i32 %17, i32* %8, align 4
  %18 = load i32, i32* %7, align 4
  %19 = load i32, i32* %8, align 4
  %20 = icmp ne i32 %18, %19
  br i1 %20, label %21, label %23

21:                                               ; preds = %0
  %22 = call i32 (i8*, ...) @printf(i8* getelementptr inbounds ([4 x i8], [4 x i8]* @.str.1, i64 0, i64 0))
  br label %135

23:                                               ; preds = %0
  store i32 1, i32* %5, align 4
  br label %24

24:                                               ; preds = %71, %23
  %25 = load i32, i32* %5, align 4
  %26 = load i32, i32* %7, align 4
  %27 = icmp slt i32 %25, %26
  br i1 %27, label %28, label %74

28:                                               ; preds = %24
  store i32 0, i32* %6, align 4
  br label %29

29:                                               ; preds = %67, %28
  %30 = load i32, i32* %6, align 4
  %31 = load i32, i32* %7, align 4
  %32 = load i32, i32* %5, align 4
  %33 = sub nsw i32 %31, %32
  %34 = icmp slt i32 %30, %33
  br i1 %34, label %35, label %70

35:                                               ; preds = %29
  %36 = load i32, i32* %6, align 4
  %37 = sext i32 %36 to i64
  %38 = getelementptr inbounds [100 x i8], [100 x i8]* %2, i64 0, i64 %37
  %39 = load i8, i8* %38, align 1
  %40 = sext i8 %39 to i32
  %41 = load i32, i32* %6, align 4
  %42 = add nsw i32 %41, 1
  %43 = sext i32 %42 to i64
  %44 = getelementptr inbounds [100 x i8], [100 x i8]* %2, i64 0, i64 %43
  %45 = load i8, i8* %44, align 1
  %46 = sext i8 %45 to i32
  %47 = icmp sgt i32 %40, %46
  br i1 %47, label %48, label %66

48:                                               ; preds = %35
  %49 = load i32, i32* %6, align 4
  %50 = sext i32 %49 to i64
  %51 = getelementptr inbounds [100 x i8], [100 x i8]* %2, i64 0, i64 %50
  %52 = load i8, i8* %51, align 1
  store i8 %52, i8* %4, align 1
  %53 = load i32, i32* %6, align 4
  %54 = add nsw i32 %53, 1
  %55 = sext i32 %54 to i64
  %56 = getelementptr inbounds [100 x i8], [100 x i8]* %2, i64 0, i64 %55
  %57 = load i8, i8* %56, align 1
  %58 = load i32, i32* %6, align 4
  %59 = sext i32 %58 to i64
  %60 = getelementptr inbounds [100 x i8], [100 x i8]* %2, i64 0, i64 %59
  store i8 %57, i8* %60, align 1
  %61 = load i8, i8* %4, align 1
  %62 = load i32, i32* %6, align 4
  %63 = add nsw i32 %62, 1
  %64 = sext i32 %63 to i64
  %65 = getelementptr inbounds [100 x i8], [100 x i8]* %2, i64 0, i64 %64
  store i8 %61, i8* %65, align 1
  br label %66

66:                                               ; preds = %48, %35
  br label %67

67:                                               ; preds = %66
  %68 = load i32, i32* %6, align 4
  %69 = add nsw i32 %68, 1
  store i32 %69, i32* %6, align 4
  br label %29

70:                                               ; preds = %29
  br label %71

71:                                               ; preds = %70
  %72 = load i32, i32* %5, align 4
  %73 = add nsw i32 %72, 1
  store i32 %73, i32* %5, align 4
  br label %24

74:                                               ; preds = %24
  store i32 1, i32* %5, align 4
  br label %75

75:                                               ; preds = %122, %74
  %76 = load i32, i32* %5, align 4
  %77 = load i32, i32* %8, align 4
  %78 = icmp slt i32 %76, %77
  br i1 %78, label %79, label %125

79:                                               ; preds = %75
  store i32 0, i32* %6, align 4
  br label %80

80:                                               ; preds = %118, %79
  %81 = load i32, i32* %6, align 4
  %82 = load i32, i32* %8, align 4
  %83 = load i32, i32* %5, align 4
  %84 = sub nsw i32 %82, %83
  %85 = icmp slt i32 %81, %84
  br i1 %85, label %86, label %121

86:                                               ; preds = %80
  %87 = load i32, i32* %6, align 4
  %88 = sext i32 %87 to i64
  %89 = getelementptr inbounds [100 x i8], [100 x i8]* %3, i64 0, i64 %88
  %90 = load i8, i8* %89, align 1
  %91 = sext i8 %90 to i32
  %92 = load i32, i32* %6, align 4
  %93 = add nsw i32 %92, 1
  %94 = sext i32 %93 to i64
  %95 = getelementptr inbounds [100 x i8], [100 x i8]* %3, i64 0, i64 %94
  %96 = load i8, i8* %95, align 1
  %97 = sext i8 %96 to i32
  %98 = icmp sgt i32 %91, %97
  br i1 %98, label %99, label %117

99:                                               ; preds = %86
  %100 = load i32, i32* %6, align 4
  %101 = sext i32 %100 to i64
  %102 = getelementptr inbounds [100 x i8], [100 x i8]* %3, i64 0, i64 %101
  %103 = load i8, i8* %102, align 1
  store i8 %103, i8* %4, align 1
  %104 = load i32, i32* %6, align 4
  %105 = add nsw i32 %104, 1
  %106 = sext i32 %105 to i64
  %107 = getelementptr inbounds [100 x i8], [100 x i8]* %3, i64 0, i64 %106
  %108 = load i8, i8* %107, align 1
  %109 = load i32, i32* %6, align 4
  %110 = sext i32 %109 to i64
  %111 = getelementptr inbounds [100 x i8], [100 x i8]* %3, i64 0, i64 %110
  store i8 %108, i8* %111, align 1
  %112 = load i8, i8* %4, align 1
  %113 = load i32, i32* %6, align 4
  %114 = add nsw i32 %113, 1
  %115 = sext i32 %114 to i64
  %116 = getelementptr inbounds [100 x i8], [100 x i8]* %3, i64 0, i64 %115
  store i8 %112, i8* %116, align 1
  br label %117

117:                                              ; preds = %99, %86
  br label %118

118:                                              ; preds = %117
  %119 = load i32, i32* %6, align 4
  %120 = add nsw i32 %119, 1
  store i32 %120, i32* %6, align 4
  br label %80

121:                                              ; preds = %80
  br label %122

122:                                              ; preds = %121
  %123 = load i32, i32* %5, align 4
  %124 = add nsw i32 %123, 1
  store i32 %124, i32* %5, align 4
  br label %75

125:                                              ; preds = %75
  %126 = getelementptr inbounds [100 x i8], [100 x i8]* %2, i64 0, i64 0
  %127 = getelementptr inbounds [100 x i8], [100 x i8]* %3, i64 0, i64 0
  %128 = call i32 @strcmp(i8* %126, i8* %127) #3
  %129 = icmp ne i32 %128, 0
  br i1 %129, label %130, label %132

130:                                              ; preds = %125
  %131 = call i32 (i8*, ...) @printf(i8* getelementptr inbounds ([4 x i8], [4 x i8]* @.str.1, i64 0, i64 0))
  br label %134

132:                                              ; preds = %125
  %133 = call i32 (i8*, ...) @printf(i8* getelementptr inbounds ([5 x i8], [5 x i8]* @.str.2, i64 0, i64 0))
  br label %134

134:                                              ; preds = %132, %130
  br label %135

135:                                              ; preds = %134, %21
  ret i32 0
}

declare dso_local i32 @__isoc99_scanf(i8*, ...) #1

; Function Attrs: nounwind readonly
declare dso_local i64 @strlen(i8*) #2

declare dso_local i32 @printf(i8*, ...) #1

; Function Attrs: nounwind readonly
declare dso_local i32 @strcmp(i8*, i8*) #2


!llvm.module.flags = !{!0}
!llvm.ident = !{!1}

!0 = !{i32 1, !"wchar_size", i32 4}
!1 = !{!"clang version 10.0.0-4ubuntu1 "}
